; Function Attrs: mustprogress nounwind uwtable
define hidden noundef ptr @_ZN8WhiteBox14lookup_jstringEPKcP7oopDesc(ptr noundef %0, ptr noundef %1) local_unnamed_addr #0 align 2 {
  %3 = load ptr, ptr getelementptr inbounds (i8, ptr @_ZN6Symbol11_vm_symbolsE, i64 7480), align 8
  %4 = tail call noundef i32 @_ZN8WhiteBox16offset_for_fieldEPKcP7oopDescP6Symbol(ptr noundef %0, ptr noundef %1, ptr noundef %3)
  %5 = sext i32 %4 to i64
  %6 = load ptr, ptr @_ZN14AccessInternal15RuntimeDispatchILm286790EP7oopDescLNS_11BarrierTypeE3EE13_load_at_funcE, align 8
  %7 = tail call noundef ptr %6(ptr noundef nonnull %1, i64 noundef %5) #15
  %8 = icmp eq ptr %7, null
  br i1 %8, label %11, label %9

9:                                                ; preds = %2
  %10 = tail call noundef ptr @_ZN16java_lang_String14as_utf8_stringEP7oopDesc(ptr noundef nonnull %7) #15
  br label %11

11:                                               ; preds = %2, %9
  %.0 = phi ptr [ %10, %9 ], [ null, %2 ]
  ret ptr %.0
}